target datalayout = "e-m:e-p270:32:32-p271:32:32-p272:64:64-i64:64-i128:128-f80:128-n8:16:32:64-S128"
target triple = "x86_64-pc-linux-gnu"

; Function Attrs: nounwind sspstrong uwtable
define hidden zeroext i16 @FLAC__crc16_update_words32(ptr noundef %0, i32 noundef %1, i16 noundef zeroext %2) #0 {
  %4 = alloca ptr, align 8
  %5 = alloca i32, align 4
  %6 = alloca i16, align 2
  store ptr %0, ptr %4, align 8, !tbaa !17
  store i32 %1, ptr %5, align 4, !tbaa !8
  store i16 %2, ptr %6, align 2, !tbaa !13
  br label %7

7:                                                ; preds = %10, %3
  %8 = load i32, ptr %5, align 4, !tbaa !8
  %9 = icmp uge i32 %8, 2
  br i1 %9, label %10, label %96

10:                                               ; preds = %7
  %11 = load ptr, ptr %4, align 8, !tbaa !17
  %12 = getelementptr inbounds i32, ptr %11, i64 0
  %13 = load i32, ptr %12, align 4, !tbaa !8
  %14 = lshr i32 %13, 16
  %15 = load i16, ptr %6, align 2, !tbaa !13
  %16 = zext i16 %15 to i32
  %17 = xor i32 %16, %14
  %18 = trunc i32 %17 to i16
  store i16 %18, ptr %6, align 2, !tbaa !13
  %19 = load i16, ptr %6, align 2, !tbaa !13
  %20 = zext i16 %19 to i32
  %21 = ashr i32 %20, 8
  %22 = sext i32 %21 to i64
  %23 = getelementptr inbounds [256 x i16], ptr getelementptr inbounds ([8 x [256 x i16]], ptr @FLAC__crc16_table, i64 0, i64 7), i64 0, i64 %22
  %24 = load i16, ptr %23, align 2, !tbaa !13
  %25 = zext i16 %24 to i32
  %26 = load i16, ptr %6, align 2, !tbaa !13
  %27 = zext i16 %26 to i32
  %28 = and i32 %27, 255
  %29 = sext i32 %28 to i64
  %30 = getelementptr inbounds [256 x i16], ptr getelementptr inbounds ([8 x [256 x i16]], ptr @FLAC__crc16_table, i64 0, i64 6), i64 0, i64 %29
  %31 = load i16, ptr %30, align 2, !tbaa !13
  %32 = zext i16 %31 to i32
  %33 = xor i32 %25, %32
  %34 = load ptr, ptr %4, align 8, !tbaa !17
  %35 = getelementptr inbounds i32, ptr %34, i64 0
  %36 = load i32, ptr %35, align 4, !tbaa !8
  %37 = lshr i32 %36, 8
  %38 = and i32 %37, 255
  %39 = zext i32 %38 to i64
  %40 = getelementptr inbounds nuw [256 x i16], ptr getelementptr inbounds ([8 x [256 x i16]], ptr @FLAC__crc16_table, i64 0, i64 5), i64 0, i64 %39
  %41 = load i16, ptr %40, align 2, !tbaa !13
  %42 = zext i16 %41 to i32
  %43 = xor i32 %33, %42
  %44 = load ptr, ptr %4, align 8, !tbaa !17
  %45 = getelementptr inbounds i32, ptr %44, i64 0
  %46 = load i32, ptr %45, align 4, !tbaa !8
  %47 = and i32 %46, 255
  %48 = zext i32 %47 to i64
  %49 = getelementptr inbounds nuw [256 x i16], ptr getelementptr inbounds ([8 x [256 x i16]], ptr @FLAC__crc16_table, i64 0, i64 4), i64 0, i64 %48
  %50 = load i16, ptr %49, align 2, !tbaa !13
  %51 = zext i16 %50 to i32
  %52 = xor i32 %43, %51
  %53 = load ptr, ptr %4, align 8, !tbaa !17
  %54 = getelementptr inbounds i32, ptr %53, i64 1
  %55 = load i32, ptr %54, align 4, !tbaa !8
  %56 = lshr i32 %55, 24
  %57 = zext i32 %56 to i64
  %58 = getelementptr inbounds nuw [256 x i16], ptr getelementptr inbounds ([8 x [256 x i16]], ptr @FLAC__crc16_table, i64 0, i64 3), i64 0, i64 %57
  %59 = load i16, ptr %58, align 2, !tbaa !13
  %60 = zext i16 %59 to i32
  %61 = xor i32 %52, %60
  %62 = load ptr, ptr %4, align 8, !tbaa !17
  %63 = getelementptr inbounds i32, ptr %62, i64 1
  %64 = load i32, ptr %63, align 4, !tbaa !8
  %65 = lshr i32 %64, 16
  %66 = and i32 %65, 255
  %67 = zext i32 %66 to i64
  %68 = getelementptr inbounds nuw [256 x i16], ptr getelementptr inbounds ([8 x [256 x i16]], ptr @FLAC__crc16_table, i64 0, i64 2), i64 0, i64 %67
  %69 = load i16, ptr %68, align 2, !tbaa !13
  %70 = zext i16 %69 to i32
  %71 = xor i32 %61, %70
  %72 = load ptr, ptr %4, align 8, !tbaa !17
  %73 = getelementptr inbounds i32, ptr %72, i64 1
  %74 = load i32, ptr %73, align 4, !tbaa !8
  %75 = lshr i32 %74, 8
  %76 = and i32 %75, 255
  %77 = zext i32 %76 to i64
  %78 = getelementptr inbounds nuw [256 x i16], ptr getelementptr inbounds ([8 x [256 x i16]], ptr @FLAC__crc16_table, i64 0, i64 1), i64 0, i64 %77
  %79 = load i16, ptr %78, align 2, !tbaa !13
  %80 = zext i16 %79 to i32
  %81 = xor i32 %71, %80
  %82 = load ptr, ptr %4, align 8, !tbaa !17
  %83 = getelementptr inbounds i32, ptr %82, i64 1
  %84 = load i32, ptr %83, align 4, !tbaa !8
  %85 = and i32 %84, 255
  %86 = zext i32 %85 to i64
  %87 = getelementptr inbounds nuw [256 x i16], ptr @FLAC__crc16_table, i64 0, i64 %86
  %88 = load i16, ptr %87, align 2, !tbaa !13
  %89 = zext i16 %88 to i32
  %90 = xor i32 %81, %89
  %91 = trunc i32 %90 to i16
  store i16 %91, ptr %6, align 2, !tbaa !13
  %92 = load ptr, ptr %4, align 8, !tbaa !17
  %93 = getelementptr inbounds i32, ptr %92, i64 2
  store ptr %93, ptr %4, align 8, !tbaa !17
  %94 = load i32, ptr %5, align 4, !tbaa !8
  %95 = sub i32 %94, 2
  store i32 %95, ptr %5, align 4, !tbaa !8
  br label %7, !llvm.loop !19

96:                                               ; preds = %7
  %97 = load i32, ptr %5, align 4, !tbaa !8
  %98 = icmp ne i32 %97, 0
  br i1 %98, label %99, label %143

99:                                               ; preds = %96
  %100 = load ptr, ptr %4, align 8, !tbaa !17
  %101 = getelementptr inbounds i32, ptr %100, i64 0
  %102 = load i32, ptr %101, align 4, !tbaa !8
  %103 = lshr i32 %102, 16
  %104 = load i16, ptr %6, align 2, !tbaa !13
  %105 = zext i16 %104 to i32
  %106 = xor i32 %105, %103
  %107 = trunc i32 %106 to i16
  store i16 %107, ptr %6, align 2, !tbaa !13
  %108 = load i16, ptr %6, align 2, !tbaa !13
  %109 = zext i16 %108 to i32
  %110 = ashr i32 %109, 8
  %111 = sext i32 %110 to i64
  %112 = getelementptr inbounds [256 x i16], ptr getelementptr inbounds ([8 x [256 x i16]], ptr @FLAC__crc16_table, i64 0, i64 3), i64 0, i64 %111
  %113 = load i16, ptr %112, align 2, !tbaa !13
  %114 = zext i16 %113 to i32
  %115 = load i16, ptr %6, align 2, !tbaa !13
  %116 = zext i16 %115 to i32
  %117 = and i32 %116, 255
  %118 = sext i32 %117 to i64
  %119 = getelementptr inbounds [256 x i16], ptr getelementptr inbounds ([8 x [256 x i16]], ptr @FLAC__crc16_table, i64 0, i64 2), i64 0, i64 %118
  %120 = load i16, ptr %119, align 2, !tbaa !13
  %121 = zext i16 %120 to i32
  %122 = xor i32 %114, %121
  %123 = load ptr, ptr %4, align 8, !tbaa !17
  %124 = getelementptr inbounds i32, ptr %123, i64 0
  %125 = load i32, ptr %124, align 4, !tbaa !8
  %126 = lshr i32 %125, 8
  %127 = and i32 %126, 255
  %128 = zext i32 %127 to i64
  %129 = getelementptr inbounds nuw [256 x i16], ptr getelementptr inbounds ([8 x [256 x i16]], ptr @FLAC__crc16_table, i64 0, i64 1), i64 0, i64 %128
  %130 = load i16, ptr %129, align 2, !tbaa !13
  %131 = zext i16 %130 to i32
  %132 = xor i32 %122, %131
  %133 = load ptr, ptr %4, align 8, !tbaa !17
  %134 = getelementptr inbounds i32, ptr %133, i64 0
  %135 = load i32, ptr %134, align 4, !tbaa !8
  %136 = and i32 %135, 255
  %137 = zext i32 %136 to i64
  %138 = getelementptr inbounds nuw [256 x i16], ptr @FLAC__crc16_table, i64 0, i64 %137
  %139 = load i16, ptr %138, align 2, !tbaa !13
  %140 = zext i16 %139 to i32
  %141 = xor i32 %132, %140
  %142 = trunc i32 %141 to i16
  store i16 %142, ptr %6, align 2, !tbaa !13
  br label %143

143:                                              ; preds = %99, %96
  %144 = load i16, ptr %6, align 2, !tbaa !13
  ret i16 %144
}