; Function Attrs: nofree norecurse nosync nounwind sspstrong memory(argmem: read) uwtable
define hidden zeroext i16 @FLAC__crc16_update_words32(ptr noundef readonly captures(none) %0, i32 noundef %1, i16 noundef zeroext %2) local_unnamed_addr #0 {
  %4 = icmp ugt i32 %1, 1
  br i1 %4, label %.lr.ph, label %._crit_edge

.lr.ph:                                           ; preds = %3, %.lr.ph
  %.024 = phi i16 [ %53, %.lr.ph ], [ %2, %3 ]
  %.02023 = phi i32 [ %55, %.lr.ph ], [ %1, %3 ]
  %.02122 = phi ptr [ %54, %.lr.ph ], [ %0, %3 ]
  %5 = load i32, ptr %.02122, align 4, !tbaa !12
  %6 = lshr i32 %5, 16
  %7 = trunc nuw i32 %6 to i16
  %8 = xor i16 %.024, %7
  %9 = zext i16 %8 to i32
  %10 = lshr i32 %9, 8
  %11 = zext nneg i32 %10 to i64
  %12 = getelementptr inbounds nuw [256 x i16], ptr getelementptr inbounds nuw (i8, ptr @FLAC__crc16_table, i64 3584), i64 0, i64 %11
  %13 = load i16, ptr %12, align 2, !tbaa !8
  %14 = and i32 %9, 255
  %15 = zext nneg i32 %14 to i64
  %16 = getelementptr inbounds nuw [256 x i16], ptr getelementptr inbounds nuw (i8, ptr @FLAC__crc16_table, i64 3072), i64 0, i64 %15
  %17 = load i16, ptr %16, align 2, !tbaa !8
  %18 = xor i16 %17, %13
  %19 = lshr i32 %5, 8
  %20 = and i32 %19, 255
  %21 = zext nneg i32 %20 to i64
  %22 = getelementptr inbounds nuw [256 x i16], ptr getelementptr inbounds nuw (i8, ptr @FLAC__crc16_table, i64 2560), i64 0, i64 %21
  %23 = load i16, ptr %22, align 2, !tbaa !8
  %24 = xor i16 %18, %23
  %25 = and i32 %5, 255
  %26 = zext nneg i32 %25 to i64
  %27 = getelementptr inbounds nuw [256 x i16], ptr getelementptr inbounds nuw (i8, ptr @FLAC__crc16_table, i64 2048), i64 0, i64 %26
  %28 = load i16, ptr %27, align 2, !tbaa !8
  %29 = xor i16 %24, %28
  %30 = getelementptr inbounds nuw i8, ptr %.02122, i64 4
  %31 = load i32, ptr %30, align 4, !tbaa !12
  %32 = lshr i32 %31, 24
  %33 = zext nneg i32 %32 to i64
  %34 = getelementptr inbounds nuw [256 x i16], ptr getelementptr inbounds nuw (i8, ptr @FLAC__crc16_table, i64 1536), i64 0, i64 %33
  %35 = load i16, ptr %34, align 2, !tbaa !8
  %36 = xor i16 %29, %35
  %37 = lshr i32 %31, 16
  %38 = and i32 %37, 255
  %39 = zext nneg i32 %38 to i64
  %40 = getelementptr inbounds nuw [256 x i16], ptr getelementptr inbounds nuw (i8, ptr @FLAC__crc16_table, i64 1024), i64 0, i64 %39
  %41 = load i16, ptr %40, align 2, !tbaa !8
  %42 = xor i16 %36, %41
  %43 = lshr i32 %31, 8
  %44 = and i32 %43, 255
  %45 = zext nneg i32 %44 to i64
  %46 = getelementptr inbounds nuw [256 x i16], ptr getelementptr inbounds nuw (i8, ptr @FLAC__crc16_table, i64 512), i64 0, i64 %45
  %47 = load i16, ptr %46, align 2, !tbaa !8
  %48 = xor i16 %42, %47
  %49 = and i32 %31, 255
  %50 = zext nneg i32 %49 to i64
  %51 = getelementptr inbounds nuw [256 x i16], ptr @FLAC__crc16_table, i64 0, i64 %50
  %52 = load i16, ptr %51, align 2, !tbaa !8
  %53 = xor i16 %48, %52
  %54 = getelementptr inbounds nuw i8, ptr %.02122, i64 8
  %55 = add i32 %.02023, -2
  %56 = icmp ugt i32 %55, 1
  br i1 %56, label %.lr.ph, label %._crit_edge, !llvm.loop !14

._crit_edge:                                      ; preds = %.lr.ph, %3
  %.021.lcssa = phi ptr [ %0, %3 ], [ %54, %.lr.ph ]
  %.020.lcssa = phi i32 [ %1, %3 ], [ %55, %.lr.ph ]
  %.0.lcssa = phi i16 [ %2, %3 ], [ %53, %.lr.ph ]
  %.not = icmp eq i32 %.020.lcssa, 0
  br i1 %.not, label %83, label %57

57:                                               ; preds = %._crit_edge
  %58 = load i32, ptr %.021.lcssa, align 4, !tbaa !12
  %59 = lshr i32 %58, 16
  %60 = trunc nuw i32 %59 to i16
  %61 = xor i16 %.0.lcssa, %60
  %62 = zext i16 %61 to i32
  %63 = lshr i32 %62, 8
  %64 = zext nneg i32 %63 to i64
  %65 = getelementptr inbounds nuw [256 x i16], ptr getelementptr inbounds nuw (i8, ptr @FLAC__crc16_table, i64 1536), i64 0, i64 %64
  %66 = load i16, ptr %65, align 2, !tbaa !8
  %67 = and i32 %62, 255
  %68 = zext nneg i32 %67 to i64
  %69 = getelementptr inbounds nuw [256 x i16], ptr getelementptr inbounds nuw (i8, ptr @FLAC__crc16_table, i64 1024), i64 0, i64 %68
  %70 = load i16, ptr %69, align 2, !tbaa !8
  %71 = xor i16 %70, %66
  %72 = lshr i32 %58, 8
  %73 = and i32 %72, 255
  %74 = zext nneg i32 %73 to i64
  %75 = getelementptr inbounds nuw [256 x i16], ptr getelementptr inbounds nuw (i8, ptr @FLAC__crc16_table, i64 512), i64 0, i64 %74
  %76 = load i16, ptr %75, align 2, !tbaa !8
  %77 = xor i16 %71, %76
  %78 = and i32 %58, 255
  %79 = zext nneg i32 %78 to i64
  %80 = getelementptr inbounds nuw [256 x i16], ptr @FLAC__crc16_table, i64 0, i64 %79
  %81 = load i16, ptr %80, align 2, !tbaa !8
  %82 = xor i16 %77, %81
  br label %83

83:                                               ; preds = %57, %._crit_edge
  %.1 = phi i16 [ %82, %57 ], [ %.0.lcssa, %._crit_edge ]
  ret i16 %.1
}